; Function Attrs: nounwind uwtable
define internal fastcc i32 @test_aes128_cmac_prf(i32 noundef %0) unnamed_addr #0 {
  %2 = alloca [16 x i8], align 16
  %3 = alloca [16 x i8], align 16
  %4 = alloca [16 x i8], align 16
  call void @llvm.lifetime.start.p0(i64 16, ptr nonnull %4) #13
  %.not15 = icmp eq i32 %0, 0
  br i1 %.not15, label %.split.us, label %.split

.split.us:                                        ; preds = %1, %19
  %indvars.iv33 = phi i64 [ %indvars.iv.next34, %19 ], [ 0, %1 ]
  %5 = trunc nuw nsw i64 %indvars.iv33 to i32
  %6 = call i32 (ptr, ...) @printf(ptr noundef nonnull dereferenceable(1) @.str.12, i32 noundef %5)
  %7 = getelementptr inbounds nuw [3 x i64], ptr @PRFKlen, i64 0, i64 %indvars.iv33
  %8 = load i64, ptr %7, align 8, !tbaa !28
  call void @llvm.lifetime.start.p0(i64 16, ptr nonnull %2) #13
  call void @llvm.lifetime.start.p0(i64 16, ptr nonnull %3) #13
  %9 = call ptr @mbedtls_cipher_info_from_type(i32 noundef 2) #13
  %10 = icmp eq ptr %9, null
  br i1 %10, label %mbedtls_aes_cmac_prf_128.exit.thread, label %11

11:                                               ; preds = %.split.us
  %12 = icmp eq i64 %indvars.iv33, 1
  br i1 %12, label %15, label %13

13:                                               ; preds = %11
  call void @llvm.memset.p0.i64(ptr noundef nonnull align 16 dereferenceable(16) %2, i8 0, i64 16, i1 false)
  %14 = call i32 @mbedtls_cipher_cmac(ptr noundef nonnull %9, ptr noundef nonnull %2, i64 noundef 128, ptr noundef nonnull @PRFK, i64 noundef %8, ptr noundef nonnull %3)
  %.not.i.us = icmp eq i32 %14, 0
  br i1 %.not.i.us, label %mbedtls_aes_cmac_prf_128.exit.us, label %mbedtls_aes_cmac_prf_128.exit.thread

15:                                               ; preds = %11
  call void @llvm.memcpy.p0.p0.i64(ptr noundef nonnull align 16 dereferenceable(16) %3, ptr noundef nonnull align 16 dereferenceable(16) @PRFK, i64 16, i1 false)
  br label %mbedtls_aes_cmac_prf_128.exit.us

mbedtls_aes_cmac_prf_128.exit.us:                 ; preds = %15, %13
  %16 = call i32 @mbedtls_cipher_cmac(ptr noundef nonnull %9, ptr noundef nonnull %3, i64 noundef 128, ptr noundef nonnull @PRFM, i64 noundef 20, ptr noundef nonnull %4)
  call void @mbedtls_platform_zeroize(ptr noundef nonnull %3, i64 noundef 16) #13
  call void @llvm.lifetime.end.p0(i64 16, ptr nonnull %3) #13
  call void @llvm.lifetime.end.p0(i64 16, ptr nonnull %2) #13
  %.not.us = icmp eq i32 %16, 0
  br i1 %.not.us, label %17, label %.loopexit21

17:                                               ; preds = %mbedtls_aes_cmac_prf_128.exit.us
  %18 = getelementptr inbounds nuw [3 x [16 x i8]], ptr @PRFT, i64 0, i64 %indvars.iv33
  %bcmp.us = call i32 @bcmp(ptr noundef nonnull dereferenceable(16) %4, ptr noundef nonnull dereferenceable(16) %18, i64 16)
  %.not14.us = icmp eq i32 %bcmp.us, 0
  br i1 %.not14.us, label %19, label %.loopexit21

19:                                               ; preds = %17
  %indvars.iv.next34 = add nuw nsw i64 %indvars.iv33, 1
  %exitcond36.not = icmp eq i64 %indvars.iv.next34, 3
  br i1 %exitcond36.not, label %.loopexit, label %.split.us, !llvm.loop !29

.split:                                           ; preds = %1, %35
  %indvars.iv = phi i64 [ %indvars.iv.next, %35 ], [ 0, %1 ]
  %20 = trunc nuw nsw i64 %indvars.iv to i32
  %21 = call i32 (ptr, ...) @printf(ptr noundef nonnull dereferenceable(1) @.str.12, i32 noundef %20)
  %22 = getelementptr inbounds nuw [3 x i64], ptr @PRFKlen, i64 0, i64 %indvars.iv
  %23 = load i64, ptr %22, align 8, !tbaa !28
  call void @llvm.lifetime.start.p0(i64 16, ptr nonnull %2) #13
  call void @llvm.lifetime.start.p0(i64 16, ptr nonnull %3) #13
  %24 = call ptr @mbedtls_cipher_info_from_type(i32 noundef 2) #13
  %25 = icmp eq ptr %24, null
  br i1 %25, label %mbedtls_aes_cmac_prf_128.exit.thread, label %26

26:                                               ; preds = %.split
  %27 = icmp eq i64 %indvars.iv, 1
  br i1 %27, label %28, label %29

28:                                               ; preds = %26
  call void @llvm.memcpy.p0.p0.i64(ptr noundef nonnull align 16 dereferenceable(16) %3, ptr noundef nonnull align 16 dereferenceable(16) @PRFK, i64 16, i1 false)
  br label %mbedtls_aes_cmac_prf_128.exit

29:                                               ; preds = %26
  call void @llvm.memset.p0.i64(ptr noundef nonnull align 16 dereferenceable(16) %2, i8 0, i64 16, i1 false)
  %30 = call i32 @mbedtls_cipher_cmac(ptr noundef nonnull %24, ptr noundef nonnull %2, i64 noundef 128, ptr noundef nonnull @PRFK, i64 noundef %23, ptr noundef nonnull %3)
  %.not.i = icmp eq i32 %30, 0
  br i1 %.not.i, label %mbedtls_aes_cmac_prf_128.exit, label %mbedtls_aes_cmac_prf_128.exit.thread

mbedtls_aes_cmac_prf_128.exit.thread:             ; preds = %.split, %29, %.split.us, %13
  %.us-phi = phi i32 [ -24704, %.split.us ], [ %14, %13 ], [ -24704, %.split ], [ %30, %29 ]
  call void @mbedtls_platform_zeroize(ptr noundef nonnull %3, i64 noundef 16) #13
  call void @llvm.lifetime.end.p0(i64 16, ptr nonnull %3) #13
  call void @llvm.lifetime.end.p0(i64 16, ptr nonnull %2) #13
  br label %.loopexit21

mbedtls_aes_cmac_prf_128.exit:                    ; preds = %28, %29
  %31 = call i32 @mbedtls_cipher_cmac(ptr noundef nonnull %24, ptr noundef nonnull %3, i64 noundef 128, ptr noundef nonnull @PRFM, i64 noundef 20, ptr noundef nonnull %4)
  call void @mbedtls_platform_zeroize(ptr noundef nonnull %3, i64 noundef 16) #13
  call void @llvm.lifetime.end.p0(i64 16, ptr nonnull %3) #13
  call void @llvm.lifetime.end.p0(i64 16, ptr nonnull %2) #13
  %.not = icmp eq i32 %31, 0
  br i1 %.not, label %32, label %.loopexit21

32:                                               ; preds = %mbedtls_aes_cmac_prf_128.exit
  %33 = getelementptr inbounds nuw [3 x [16 x i8]], ptr @PRFT, i64 0, i64 %indvars.iv
  %bcmp = call i32 @bcmp(ptr noundef nonnull dereferenceable(16) %4, ptr noundef nonnull dereferenceable(16) %33, i64 16)
  %.not14 = icmp eq i32 %bcmp, 0
  br i1 %.not14, label %35, label %.loopexit21

.loopexit21:                                      ; preds = %mbedtls_aes_cmac_prf_128.exit, %32, %17, %mbedtls_aes_cmac_prf_128.exit.us, %mbedtls_aes_cmac_prf_128.exit.thread
  %.018.i20 = phi i32 [ %.us-phi, %mbedtls_aes_cmac_prf_128.exit.thread ], [ %16, %mbedtls_aes_cmac_prf_128.exit.us ], [ 0, %17 ], [ %31, %mbedtls_aes_cmac_prf_128.exit ], [ 0, %32 ]
  br i1 %.not15, label %.loopexit, label %34

34:                                               ; preds = %.loopexit21
  %puts17 = call i32 @puts(ptr nonnull dereferenceable(1) @str.11)
  br label %.loopexit

35:                                               ; preds = %32
  %puts = call i32 @puts(ptr nonnull dereferenceable(1) @str.10)
  %indvars.iv.next = add nuw nsw i64 %indvars.iv, 1
  %exitcond.not = icmp eq i64 %indvars.iv.next, 3
  br i1 %exitcond.not, label %.loopexit, label %.split, !llvm.loop !29

.loopexit:                                        ; preds = %35, %19, %.loopexit21, %34
  %.012 = phi i32 [ %.018.i20, %34 ], [ %.018.i20, %.loopexit21 ], [ 0, %19 ], [ 0, %35 ]
  call void @llvm.lifetime.end.p0(i64 16, ptr nonnull %4) #13
  ret i32 %.012
}